target datalayout = "e-m:e-p270:32:32-p271:32:32-p272:64:64-i64:64-i128:128-f80:128-n8:16:32:64-S128"
target triple = "x86_64-pc-linux-gnu"

%"class.__cxxabiv1::(anonymous namespace)::st_cxa_cleanup" = type <{ ptr, ptr, i64, ptr, i8, [7 x i8] }>
%"class.__cxxabiv1::(anonymous namespace)::st_heap_block3" = type <{ ptr, ptr, i64, i8, [7 x i8] }>
%"class.__cxxabiv1::(anonymous namespace)::st_terminate" = type { i8 }

; Function Attrs: mustprogress nounwind uwtable
define internal void @_ZN10__cxxabiv112_GLOBAL__N_114st_cxa_cleanup7releaseEv(ptr noundef nonnull align 8 dereferenceable(33) %0) #4 align 2 {
  %2 = alloca ptr, align 8
  store ptr %0, ptr %2, align 8, !tbaa !31
  %3 = load ptr, ptr %2, align 8
  %4 = getelementptr inbounds nuw %"class.__cxxabiv1::(anonymous namespace)::st_cxa_cleanup", ptr %3, i32 0, i32 4
  store i8 0, ptr %4, align 8, !tbaa !39
  ret void
}

; Function Attrs: mustprogress nounwind uwtable
define internal void @_ZN10__cxxabiv112_GLOBAL__N_112st_terminate7releaseEv(ptr noundef nonnull align 1 dereferenceable(1) %0) #4 align 2 {
  %2 = alloca ptr, align 8
  store ptr %0, ptr %2, align 8, !tbaa !42
  %3 = load ptr, ptr %2, align 8
  %4 = getelementptr inbounds nuw %"class.__cxxabiv1::(anonymous namespace)::st_terminate", ptr %3, i32 0, i32 0
  store i8 0, ptr %4, align 1, !tbaa !45
  ret void
}

; Function Attrs: mustprogress nounwind uwtable
define internal void @_ZN10__cxxabiv112_GLOBAL__N_112st_terminateD2Ev(ptr noundef nonnull align 1 dereferenceable(1) %0) unnamed_addr #4 align 2 {
  %2 = alloca ptr, align 8
  store ptr %0, ptr %2, align 8, !tbaa !42
  %3 = load ptr, ptr %2, align 8
  %4 = getelementptr inbounds nuw %"class.__cxxabiv1::(anonymous namespace)::st_terminate", ptr %3, i32 0, i32 0
  %5 = load i8, ptr %4, align 1, !tbaa !45, !range !21, !noundef !22
  %6 = trunc i8 %5 to i1
  br i1 %6, label %7, label %8

7:                                                ; preds = %1
  call void @_ZSt9terminatev() #12
  unreachable

8:                                                ; preds = %1
  ret void
}

; Function Attrs: mustprogress nounwind uwtable
define internal void @_ZN10__cxxabiv112_GLOBAL__N_112st_terminateC2Eb(ptr noundef nonnull align 1 dereferenceable(1) %0, i1 noundef zeroext %1) unnamed_addr #4 align 2 {
  %3 = alloca ptr, align 8
  %4 = alloca i8, align 1
  store ptr %0, ptr %3, align 8, !tbaa !42
  %5 = zext i1 %1 to i8
  store i8 %5, ptr %4, align 1, !tbaa !44
  %6 = load ptr, ptr %3, align 8
  %7 = getelementptr inbounds nuw %"class.__cxxabiv1::(anonymous namespace)::st_terminate", ptr %6, i32 0, i32 0
  %8 = load i8, ptr %4, align 1, !tbaa !44, !range !21, !noundef !22
  %9 = trunc i8 %8 to i1
  %10 = zext i1 %9 to i8
  store i8 %10, ptr %7, align 1, !tbaa !45
  ret void
}

; Function Attrs: mustprogress nounwind uwtable
define internal void @_ZN10__cxxabiv112_GLOBAL__N_114st_cxa_cleanupC2EPvRmmPFvS2_E(ptr noundef nonnull align 8 dereferenceable(33) %0, ptr noundef %1, ptr noundef nonnull align 8 dereferenceable(8) %2, i64 noundef %3, ptr noundef %4) unnamed_addr #4 align 2 {
  %6 = alloca ptr, align 8
  %7 = alloca ptr, align 8
  %8 = alloca ptr, align 8
  %9 = alloca i64, align 8
  %10 = alloca ptr, align 8
  store ptr %0, ptr %6, align 8, !tbaa !31
  store ptr %1, ptr %7, align 8, !tbaa !8
  store ptr %2, ptr %8, align 8, !tbaa !33
  store i64 %3, ptr %9, align 8, !tbaa !4
  store ptr %4, ptr %10, align 8, !tbaa !8
  %11 = load ptr, ptr %6, align 8
  %12 = getelementptr inbounds nuw %"class.__cxxabiv1::(anonymous namespace)::st_cxa_cleanup", ptr %11, i32 0, i32 0
  %13 = load ptr, ptr %7, align 8, !tbaa !8
  store ptr %13, ptr %12, align 8, !tbaa !35
  %14 = getelementptr inbounds nuw %"class.__cxxabiv1::(anonymous namespace)::st_cxa_cleanup", ptr %11, i32 0, i32 1
  %15 = load ptr, ptr %8, align 8, !tbaa !33
  store ptr %15, ptr %14, align 8, !tbaa !33
  %16 = getelementptr inbounds nuw %"class.__cxxabiv1::(anonymous namespace)::st_cxa_cleanup", ptr %11, i32 0, i32 2
  %17 = load i64, ptr %9, align 8, !tbaa !4
  store i64 %17, ptr %16, align 8, !tbaa !37
  %18 = getelementptr inbounds nuw %"class.__cxxabiv1::(anonymous namespace)::st_cxa_cleanup", ptr %11, i32 0, i32 3
  %19 = load ptr, ptr %10, align 8, !tbaa !8
  store ptr %19, ptr %18, align 8, !tbaa !38
  %20 = getelementptr inbounds nuw %"class.__cxxabiv1::(anonymous namespace)::st_cxa_cleanup", ptr %11, i32 0, i32 4
  store i8 1, ptr %20, align 8, !tbaa !39
  ret void
}

; Function Attrs: mustprogress nounwind uwtable
define internal void @_ZN10__cxxabiv112_GLOBAL__N_114st_heap_block3D2Ev(ptr noundef nonnull align 8 dereferenceable(25) %0) unnamed_addr #4 align 2 personality ptr @__gxx_personality_v0 {
  %2 = alloca ptr, align 8
  store ptr %0, ptr %2, align 8, !tbaa !23
  %3 = load ptr, ptr %2, align 8
  %4 = getelementptr inbounds nuw %"class.__cxxabiv1::(anonymous namespace)::st_heap_block3", ptr %3, i32 0, i32 3
  %5 = load i8, ptr %4, align 8, !tbaa !29, !range !21, !noundef !22
  %6 = trunc i8 %5 to i1
  br i1 %6, label %7, label %15

7:                                                ; preds = %1
  %8 = getelementptr inbounds nuw %"class.__cxxabiv1::(anonymous namespace)::st_heap_block3", ptr %3, i32 0, i32 0
  %9 = load ptr, ptr %8, align 8, !tbaa !25
  %10 = getelementptr inbounds nuw %"class.__cxxabiv1::(anonymous namespace)::st_heap_block3", ptr %3, i32 0, i32 1
  %11 = load ptr, ptr %10, align 8, !tbaa !27
  %12 = getelementptr inbounds nuw %"class.__cxxabiv1::(anonymous namespace)::st_heap_block3", ptr %3, i32 0, i32 2
  %13 = load i64, ptr %12, align 8, !tbaa !28
  invoke void %9(ptr noundef %11, i64 noundef %13)
          to label %14 unwind label %16

14:                                               ; preds = %7
  br label %15

15:                                               ; preds = %14, %1
  ret void

16:                                               ; preds = %7
  %17 = landingpad { ptr, i32 }
          catch ptr null
  %18 = extractvalue { ptr, i32 } %17, 0
  call void @__clang_call_terminate(ptr %18) #12
  unreachable
}

; Function Attrs: mustprogress uwtable
define dso_local void @__cxa_vec_dtor(ptr noundef %0, i64 noundef %1, i64 noundef %2, ptr noundef %3) #0 personality ptr @__gxx_personality_v0 {
  %5 = alloca ptr, align 8
  %6 = alloca i64, align 8
  %7 = alloca i64, align 8
  %8 = alloca ptr, align 8
  %9 = alloca ptr, align 8
  %10 = alloca i64, align 8
  %11 = alloca %"class.__cxxabiv1::(anonymous namespace)::st_cxa_cleanup", align 8
  %12 = alloca %"class.__cxxabiv1::(anonymous namespace)::st_terminate", align 1
  %13 = alloca ptr, align 8
  %14 = alloca i32, align 4
  store ptr %0, ptr %5, align 8, !tbaa !8
  store i64 %1, ptr %6, align 8, !tbaa !4
  store i64 %2, ptr %7, align 8, !tbaa !4
  store ptr %3, ptr %8, align 8, !tbaa !8
  %15 = load ptr, ptr %8, align 8, !tbaa !8
  %16 = icmp ne ptr null, %15
  br i1 %16, label %17, label %59

17:                                               ; preds = %4
  call void @llvm.lifetime.start.p0(i64 8, ptr %9) #10
  %18 = load ptr, ptr %5, align 8, !tbaa !8
  store ptr %18, ptr %9, align 8, !tbaa !10
  call void @llvm.lifetime.start.p0(i64 8, ptr %10) #10
  %19 = load i64, ptr %6, align 8, !tbaa !4
  store i64 %19, ptr %10, align 8, !tbaa !4
  call void @llvm.lifetime.start.p0(i64 40, ptr %11) #10
  %20 = load ptr, ptr %5, align 8, !tbaa !8
  %21 = load i64, ptr %7, align 8, !tbaa !4
  %22 = load ptr, ptr %8, align 8, !tbaa !8
  call void @_ZN10__cxxabiv112_GLOBAL__N_114st_cxa_cleanupC2EPvRmmPFvS2_E(ptr noundef nonnull align 8 dereferenceable(33) %11, ptr noundef %20, ptr noundef nonnull align 8 dereferenceable(8) %10, i64 noundef %21, ptr noundef %22)
  call void @llvm.lifetime.start.p0(i64 1, ptr %12) #10
  %23 = call zeroext i1 @__cxa_uncaught_exception() #10
  invoke void @_ZN10__cxxabiv112_GLOBAL__N_112st_terminateC2Eb(ptr noundef nonnull align 1 dereferenceable(1) %12, i1 noundef zeroext %23)
          to label %24 unwind label %42

24:                                               ; preds = %17
  %25 = load i64, ptr %6, align 8, !tbaa !4
  %26 = load i64, ptr %7, align 8, !tbaa !4
  %27 = mul i64 %25, %26
  %28 = load ptr, ptr %9, align 8, !tbaa !10
  %29 = getelementptr inbounds nuw i8, ptr %28, i64 %27
  store ptr %29, ptr %9, align 8, !tbaa !10
  br label %30

30:                                               ; preds = %41, %24
  %31 = load i64, ptr %10, align 8, !tbaa !4
  %32 = add i64 %31, -1
  store i64 %32, ptr %10, align 8, !tbaa !4
  %33 = icmp ugt i64 %31, 0
  br i1 %33, label %34, label %50

34:                                               ; preds = %30
  %35 = load i64, ptr %7, align 8, !tbaa !4
  %36 = load ptr, ptr %9, align 8, !tbaa !10
  %37 = sub i64 0, %35
  %38 = getelementptr inbounds i8, ptr %36, i64 %37
  store ptr %38, ptr %9, align 8, !tbaa !10
  %39 = load ptr, ptr %8, align 8, !tbaa !8
  %40 = load ptr, ptr %9, align 8, !tbaa !10
  invoke void %39(ptr noundef %40)
          to label %41 unwind label %46

41:                                               ; preds = %34
  br label %30, !llvm.loop !41

42:                                               ; preds = %17
  %43 = landingpad { ptr, i32 }
          cleanup
  %44 = extractvalue { ptr, i32 } %43, 0
  store ptr %44, ptr %13, align 8
  %45 = extractvalue { ptr, i32 } %43, 1
  store i32 %45, ptr %14, align 4
  br label %53

46:                                               ; preds = %50, %34
  %47 = landingpad { ptr, i32 }
          cleanup
  %48 = extractvalue { ptr, i32 } %47, 0
  store ptr %48, ptr %13, align 8
  %49 = extractvalue { ptr, i32 } %47, 1
  store i32 %49, ptr %14, align 4
  call void @_ZN10__cxxabiv112_GLOBAL__N_112st_terminateD2Ev(ptr noundef nonnull align 1 dereferenceable(1) %12) #10
  br label %53

50:                                               ; preds = %30
  invoke void @_ZN10__cxxabiv112_GLOBAL__N_112st_terminate7releaseEv(ptr noundef nonnull align 1 dereferenceable(1) %12)
          to label %51 unwind label %46

51:                                               ; preds = %50
  call void @_ZN10__cxxabiv112_GLOBAL__N_112st_terminateD2Ev(ptr noundef nonnull align 1 dereferenceable(1) %12) #10
  call void @llvm.lifetime.end.p0(i64 1, ptr %12) #10
  invoke void @_ZN10__cxxabiv112_GLOBAL__N_114st_cxa_cleanup7releaseEv(ptr noundef nonnull align 8 dereferenceable(33) %11)
          to label %52 unwind label %54

52:                                               ; preds = %51
  call void @_ZN10__cxxabiv112_GLOBAL__N_114st_cxa_cleanupD2Ev(ptr noundef nonnull align 8 dereferenceable(33) %11) #10
  call void @llvm.lifetime.end.p0(i64 40, ptr %11) #10
  call void @llvm.lifetime.end.p0(i64 8, ptr %10) #10
  call void @llvm.lifetime.end.p0(i64 8, ptr %9) #10
  br label %59

53:                                               ; preds = %46, %42
  call void @llvm.lifetime.end.p0(i64 1, ptr %12) #10
  br label %58

54:                                               ; preds = %51
  %55 = landingpad { ptr, i32 }
          cleanup
  %56 = extractvalue { ptr, i32 } %55, 0
  store ptr %56, ptr %13, align 8
  %57 = extractvalue { ptr, i32 } %55, 1
  store i32 %57, ptr %14, align 4
  br label %58

58:                                               ; preds = %54, %53
  call void @_ZN10__cxxabiv112_GLOBAL__N_114st_cxa_cleanupD2Ev(ptr noundef nonnull align 8 dereferenceable(33) %11) #10
  call void @llvm.lifetime.end.p0(i64 40, ptr %11) #10
  call void @llvm.lifetime.end.p0(i64 8, ptr %10) #10
  call void @llvm.lifetime.end.p0(i64 8, ptr %9) #10
  br label %60

59:                                               ; preds = %52, %4
  ret void

60:                                               ; preds = %58
  %61 = load ptr, ptr %13, align 8
  %62 = load i32, ptr %14, align 4
  %63 = insertvalue { ptr, i32 } poison, ptr %61, 0
  %64 = insertvalue { ptr, i32 } %63, i32 %62, 1
  resume { ptr, i32 } %64
}

; Function Attrs: mustprogress nounwind uwtable
define internal void @_ZN10__cxxabiv112_GLOBAL__N_114st_heap_block3C2EPFvPvmES2_m(ptr noundef nonnull align 8 dereferenceable(25) %0, ptr noundef %1, ptr noundef %2, i64 noundef %3) unnamed_addr #4 align 2 {
  %5 = alloca ptr, align 8
  %6 = alloca ptr, align 8
  %7 = alloca ptr, align 8
  %8 = alloca i64, align 8
  store ptr %0, ptr %5, align 8, !tbaa !23
  store ptr %1, ptr %6, align 8, !tbaa !8
  store ptr %2, ptr %7, align 8, !tbaa !8
  store i64 %3, ptr %8, align 8, !tbaa !4
  %9 = load ptr, ptr %5, align 8
  %10 = getelementptr inbounds nuw %"class.__cxxabiv1::(anonymous namespace)::st_heap_block3", ptr %9, i32 0, i32 0
  %11 = load ptr, ptr %6, align 8, !tbaa !8
  store ptr %11, ptr %10, align 8, !tbaa !25
  %12 = getelementptr inbounds nuw %"class.__cxxabiv1::(anonymous namespace)::st_heap_block3", ptr %9, i32 0, i32 1
  %13 = load ptr, ptr %7, align 8, !tbaa !8
  store ptr %13, ptr %12, align 8, !tbaa !27
  %14 = getelementptr inbounds nuw %"class.__cxxabiv1::(anonymous namespace)::st_heap_block3", ptr %9, i32 0, i32 2
  %15 = load i64, ptr %8, align 8, !tbaa !4
  store i64 %15, ptr %14, align 8, !tbaa !28
  %16 = getelementptr inbounds nuw %"class.__cxxabiv1::(anonymous namespace)::st_heap_block3", ptr %9, i32 0, i32 3
  store i8 1, ptr %16, align 8, !tbaa !29
  ret void
}

; Function Attrs: inlinehint mustprogress nounwind uwtable
define internal noundef i64 @_ZN10__cxxabiv112_GLOBAL__N_119__get_element_countEPv(ptr noundef %0) #5 {
  %2 = alloca ptr, align 8
  store ptr %0, ptr %2, align 8, !tbaa !8
  %3 = load ptr, ptr %2, align 8, !tbaa !8
  %4 = getelementptr inbounds i64, ptr %3, i64 -1
  %5 = load i64, ptr %4, align 8, !tbaa !4
  ret i64 %5
}

; Function Attrs: mustprogress uwtable
define dso_local void @__cxa_vec_delete3(ptr noundef %0, i64 noundef %1, i64 noundef %2, ptr noundef %3, ptr noundef %4) #0 personality ptr @__gxx_personality_v0 {
  %6 = alloca ptr, align 8
  %7 = alloca i64, align 8
  %8 = alloca i64, align 8
  %9 = alloca ptr, align 8
  %10 = alloca ptr, align 8
  %11 = alloca ptr, align 8
  %12 = alloca ptr, align 8
  %13 = alloca i64, align 8
  %14 = alloca i64, align 8
  %15 = alloca %"class.__cxxabiv1::(anonymous namespace)::st_heap_block3", align 8
  %16 = alloca ptr, align 8
  %17 = alloca i32, align 4
  store ptr %0, ptr %6, align 8, !tbaa !8
  store i64 %1, ptr %7, align 8, !tbaa !4
  store i64 %2, ptr %8, align 8, !tbaa !4
  store ptr %3, ptr %9, align 8, !tbaa !8
  store ptr %4, ptr %10, align 8, !tbaa !8
  %18 = load ptr, ptr %6, align 8, !tbaa !8
  %19 = icmp ne ptr null, %18
  br i1 %19, label %20, label %58

20:                                               ; preds = %5
  call void @llvm.lifetime.start.p0(i64 8, ptr %11) #10
  %21 = load ptr, ptr %6, align 8, !tbaa !8
  store ptr %21, ptr %11, align 8, !tbaa !10
  call void @llvm.lifetime.start.p0(i64 8, ptr %12) #10
  %22 = load ptr, ptr %11, align 8, !tbaa !10
  %23 = load i64, ptr %8, align 8, !tbaa !4
  %24 = sub i64 0, %23
  %25 = getelementptr inbounds i8, ptr %22, i64 %24
  store ptr %25, ptr %12, align 8, !tbaa !10
  call void @llvm.lifetime.start.p0(i64 8, ptr %13) #10
  %26 = load i64, ptr %8, align 8, !tbaa !4
  %27 = icmp ne i64 %26, 0
  br i1 %27, label %28, label %31

28:                                               ; preds = %20
  %29 = load ptr, ptr %11, align 8, !tbaa !10
  %30 = call noundef i64 @_ZN10__cxxabiv112_GLOBAL__N_119__get_element_countEPv(ptr noundef %29)
  br label %32

31:                                               ; preds = %20
  br label %32

32:                                               ; preds = %31, %28
  %33 = phi i64 [ %30, %28 ], [ 0, %31 ]
  store i64 %33, ptr %13, align 8, !tbaa !4
  call void @llvm.lifetime.start.p0(i64 8, ptr %14) #10
  %34 = load i64, ptr %7, align 8, !tbaa !4
  %35 = load i64, ptr %13, align 8, !tbaa !4
  %36 = mul i64 %34, %35
  %37 = load i64, ptr %8, align 8, !tbaa !4
  %38 = add i64 %36, %37
  store i64 %38, ptr %14, align 8, !tbaa !4
  call void @llvm.lifetime.start.p0(i64 32, ptr %15) #10
  %39 = load ptr, ptr %10, align 8, !tbaa !8
  %40 = load ptr, ptr %12, align 8, !tbaa !10
  %41 = load i64, ptr %14, align 8, !tbaa !4
  call void @_ZN10__cxxabiv112_GLOBAL__N_114st_heap_block3C2EPFvPvmES2_m(ptr noundef nonnull align 8 dereferenceable(25) %15, ptr noundef %39, ptr noundef %40, i64 noundef %41)
  %42 = load i64, ptr %8, align 8, !tbaa !4
  %43 = icmp ne i64 0, %42
  br i1 %43, label %44, label %57

44:                                               ; preds = %32
  %45 = load ptr, ptr %9, align 8, !tbaa !8
  %46 = icmp ne ptr null, %45
  br i1 %46, label %47, label %57

47:                                               ; preds = %44
  %48 = load ptr, ptr %6, align 8, !tbaa !8
  %49 = load i64, ptr %13, align 8, !tbaa !4
  %50 = load i64, ptr %7, align 8, !tbaa !4
  %51 = load ptr, ptr %9, align 8, !tbaa !8
  invoke void @__cxa_vec_dtor(ptr noundef %48, i64 noundef %49, i64 noundef %50, ptr noundef %51)
          to label %52 unwind label %53

52:                                               ; preds = %47
  br label %57

53:                                               ; preds = %47
  %54 = landingpad { ptr, i32 }
          cleanup
  %55 = extractvalue { ptr, i32 } %54, 0
  store ptr %55, ptr %16, align 8
  %56 = extractvalue { ptr, i32 } %54, 1
  store i32 %56, ptr %17, align 4
  call void @_ZN10__cxxabiv112_GLOBAL__N_114st_heap_block3D2Ev(ptr noundef nonnull align 8 dereferenceable(25) %15) #10
  call void @llvm.lifetime.end.p0(i64 32, ptr %15) #10
  call void @llvm.lifetime.end.p0(i64 8, ptr %14) #10
  call void @llvm.lifetime.end.p0(i64 8, ptr %13) #10
  call void @llvm.lifetime.end.p0(i64 8, ptr %12) #10
  call void @llvm.lifetime.end.p0(i64 8, ptr %11) #10
  br label %59

57:                                               ; preds = %52, %44, %32
  call void @_ZN10__cxxabiv112_GLOBAL__N_114st_heap_block3D2Ev(ptr noundef nonnull align 8 dereferenceable(25) %15) #10
  call void @llvm.lifetime.end.p0(i64 32, ptr %15) #10
  call void @llvm.lifetime.end.p0(i64 8, ptr %14) #10
  call void @llvm.lifetime.end.p0(i64 8, ptr %13) #10
  call void @llvm.lifetime.end.p0(i64 8, ptr %12) #10
  call void @llvm.lifetime.end.p0(i64 8, ptr %11) #10
  br label %58

58:                                               ; preds = %57, %5
  ret void

59:                                               ; preds = %53
  %60 = load ptr, ptr %16, align 8
  %61 = load i32, ptr %17, align 4
  %62 = insertvalue { ptr, i32 } poison, ptr %60, 0
  %63 = insertvalue { ptr, i32 } %62, i32 %61, 1
  resume { ptr, i32 } %63
}