; Function Attrs: mustprogress uwtable
define dso_local void @__cxa_vec_delete3(ptr noundef %0, i64 noundef %1, i64 noundef %2, ptr noundef %3, ptr noundef readonly captures(none) %4) local_unnamed_addr #0 personality ptr @__gxx_personality_v0 {
  %6 = alloca i64, align 8
  %7 = alloca %"class.__cxxabiv1::(anonymous namespace)::st_cxa_cleanup", align 8
  %.not = icmp eq ptr %0, null
  br i1 %.not, label %_ZN10__cxxabiv112_GLOBAL__N_114st_heap_block3D2Ev.exit21, label %8

8:                                                ; preds = %5
  %9 = sub i64 0, %2
  %10 = getelementptr inbounds i8, ptr %0, i64 %9
  %.not27 = icmp eq i64 %2, 0
  br i1 %.not27, label %.thread, label %11

11:                                               ; preds = %8
  %12 = getelementptr i8, ptr %0, i64 -8
  %.val = load i64, ptr %12, align 8, !tbaa !4
  %13 = mul i64 %.val, %1
  %14 = add i64 %13, %2
  %.not28 = icmp eq ptr %3, null
  br i1 %.not28, label %.thread, label %15

15:                                               ; preds = %11
  call void @llvm.lifetime.start.p0(i64 8, ptr nonnull %6) #12
  store i64 %.val, ptr %6, align 8, !tbaa !4
  call void @llvm.lifetime.start.p0(i64 40, ptr nonnull %7) #12
  store ptr %0, ptr %7, align 8, !tbaa !8
  %16 = getelementptr inbounds nuw i8, ptr %7, i64 8
  store ptr %6, ptr %16, align 8, !tbaa !13
  %17 = getelementptr inbounds nuw i8, ptr %7, i64 16
  store i64 %1, ptr %17, align 8, !tbaa !14
  %18 = getelementptr inbounds nuw i8, ptr %7, i64 24
  store ptr %3, ptr %18, align 8, !tbaa !15
  %19 = getelementptr inbounds nuw i8, ptr %7, i64 32
  store i8 1, ptr %19, align 8, !tbaa !16
  %20 = call zeroext i1 @__cxa_uncaught_exception() #12
  %21 = getelementptr inbounds nuw i8, ptr %0, i64 %13
  %22 = sub i64 0, %1
  br label %23

23:                                               ; preds = %26, %15
  %.0.i = phi ptr [ %21, %15 ], [ %27, %26 ]
  %24 = load i64, ptr %6, align 8, !tbaa !4
  %25 = add i64 %24, -1
  store i64 %25, ptr %6, align 8, !tbaa !4
  %.not15.i = icmp eq i64 %24, 0
  br i1 %.not15.i, label %__cxa_vec_dtor.exit, label %26

26:                                               ; preds = %23
  %27 = getelementptr inbounds i8, ptr %.0.i, i64 %22
  invoke void %3(ptr noundef %27)
          to label %23 unwind label %28, !llvm.loop !24

28:                                               ; preds = %26
  %29 = landingpad { ptr, i32 }
          cleanup
  br i1 %20, label %30, label %_ZN10__cxxabiv112_GLOBAL__N_112st_terminateD2Ev.exit.i

30:                                               ; preds = %28
  call void @_ZSt9terminatev() #13
  unreachable

_ZN10__cxxabiv112_GLOBAL__N_112st_terminateD2Ev.exit.i: ; preds = %28
  call fastcc void @_ZN10__cxxabiv112_GLOBAL__N_114st_cxa_cleanupD2Ev(ptr noundef nonnull align 8 dereferenceable(33) %7) #12
  call void @llvm.lifetime.end.p0(i64 40, ptr nonnull %7) #12
  call void @llvm.lifetime.end.p0(i64 8, ptr nonnull %6) #12
  invoke void %4(ptr noundef nonnull %10, i64 noundef %14)
          to label %_ZN10__cxxabiv112_GLOBAL__N_114st_heap_block3D2Ev.exit unwind label %31

__cxa_vec_dtor.exit:                              ; preds = %23
  call void @llvm.lifetime.end.p0(i64 40, ptr nonnull %7) #12
  call void @llvm.lifetime.end.p0(i64 8, ptr nonnull %6) #12
  br label %.thread

31:                                               ; preds = %_ZN10__cxxabiv112_GLOBAL__N_112st_terminateD2Ev.exit.i
  %32 = landingpad { ptr, i32 }
          catch ptr null
  %33 = extractvalue { ptr, i32 } %32, 0
  call void @__clang_call_terminate(ptr %33) #13
  unreachable

_ZN10__cxxabiv112_GLOBAL__N_114st_heap_block3D2Ev.exit: ; preds = %_ZN10__cxxabiv112_GLOBAL__N_112st_terminateD2Ev.exit.i
  resume { ptr, i32 } %29

.thread:                                          ; preds = %8, %11, %__cxa_vec_dtor.exit
  %34 = phi i64 [ %14, %__cxa_vec_dtor.exit ], [ %14, %11 ], [ 0, %8 ]
  invoke void %4(ptr noundef nonnull %10, i64 noundef %34)
          to label %_ZN10__cxxabiv112_GLOBAL__N_114st_heap_block3D2Ev.exit21 unwind label %35

35:                                               ; preds = %.thread
  %36 = landingpad { ptr, i32 }
          catch ptr null
  %37 = extractvalue { ptr, i32 } %36, 0
  call void @__clang_call_terminate(ptr %37) #13
  unreachable

_ZN10__cxxabiv112_GLOBAL__N_114st_heap_block3D2Ev.exit21: ; preds = %.thread, %5
  ret void
}